target datalayout = "e-m:e-p270:32:32-p271:32:32-p272:64:64-i64:64-i128:128-f80:128-n8:16:32:64-S128"
target triple = "x86_64-pc-linux-gnu"

%class.FunctionInvocationUser = type <{ %class.FunctionInvocation, ptr, i8, [7 x i8] }>
%class.FunctionInvocation = type { ptr, i32, %"class.std::vector.9", i8, i8, ptr }
%"class.std::vector.9" = type { %"struct.std::_Vector_base.10" }
%"struct.std::_Vector_base.10" = type { %"struct.std::_Vector_base<const Expression *, std::allocator<const Expression *>>::_Vector_impl" }
%"struct.std::_Vector_base<const Expression *, std::allocator<const Expression *>>::_Vector_impl" = type { %"struct.std::_Vector_base<const Expression *, std::allocator<const Expression *>>::_Vector_impl_data" }
%"struct.std::_Vector_base<const Expression *, std::allocator<const Expression *>>::_Vector_impl_data" = type { ptr, ptr, ptr }

; Function Attrs: mustprogress uwtable
define dso_local void @_ZN22FunctionInvocationUserC2EP8FunctionbPK11SafeOpFlags(ptr noundef nonnull align 8 dereferenceable(65) %0, ptr noundef %1, i1 noundef zeroext %2, ptr noundef %3) unnamed_addr #5 align 2 {
  %5 = alloca ptr, align 8
  %6 = alloca ptr, align 8
  %7 = alloca i8, align 1
  %8 = alloca ptr, align 8
  store ptr %0, ptr %5, align 8, !tbaa !23
  store ptr %1, ptr %6, align 8, !tbaa !46
  %9 = zext i1 %2 to i8
  store i8 %9, ptr %7, align 1, !tbaa !91
  store ptr %3, ptr %8, align 8, !tbaa !92
  %10 = load ptr, ptr %5, align 8
  %11 = load ptr, ptr %8, align 8, !tbaa !92
  call void @_ZN18FunctionInvocationC2E15eInvocationTypePK11SafeOpFlags(ptr noundef nonnull align 8 dereferenceable(56) %10, i32 noundef 2, ptr noundef %11)
  store ptr getelementptr inbounds inrange(-16, 104) ({ [15 x ptr] }, ptr @_ZTV22FunctionInvocationUser, i32 0, i32 0, i32 2), ptr %10, align 8, !tbaa !35
  %12 = getelementptr inbounds nuw %class.FunctionInvocationUser, ptr %10, i32 0, i32 1
  %13 = load ptr, ptr %6, align 8, !tbaa !46
  store ptr %13, ptr %12, align 8, !tbaa !49
  %14 = getelementptr inbounds nuw %class.FunctionInvocationUser, ptr %10, i32 0, i32 2
  %15 = load i8, ptr %7, align 1, !tbaa !91, !range !93, !noundef !94
  %16 = trunc i8 %15 to i1
  %17 = zext i1 %16 to i8
  store i8 %17, ptr %14, align 8, !tbaa !95
  ret void
}