; Function Attrs: mustprogress uwtable
define dso_local void @_ZN22FunctionInvocationUserC2EP8FunctionbPK11SafeOpFlags(ptr noundef nonnull align 8 dereferenceable(65) %0, ptr noundef %1, i1 noundef zeroext %2, ptr noundef %3) unnamed_addr #4 align 2 {
  %5 = zext i1 %2 to i8
  tail call void @_ZN18FunctionInvocationC2E15eInvocationTypePK11SafeOpFlags(ptr noundef nonnull align 8 dereferenceable(56) %0, i32 noundef 2, ptr noundef %3)
  store ptr getelementptr inbounds nuw inrange(-16, 104) (i8, ptr @_ZTV22FunctionInvocationUser, i64 16), ptr %0, align 8, !tbaa !30
  %6 = getelementptr inbounds nuw i8, ptr %0, i64 56
  store ptr %1, ptr %6, align 8, !tbaa !36
  %7 = getelementptr inbounds nuw i8, ptr %0, i64 64
  store i8 %5, ptr %7, align 8, !tbaa !82
  ret void
}